target datalayout = "e-m:e-p270:32:32-p271:32:32-p272:64:64-i64:64-i128:128-f80:128-n8:16:32:64-S128"
target triple = "x86_64-pc-linux-gnu"

%struct.ccm128_context = type { %union.anon, %union.anon, i64, ptr, ptr }
%union.anon = type { [2 x i64] }

; Function Attrs: nounwind uwtable
define void @CRYPTO_ccm128_init(ptr noundef %0, i32 noundef %1, i32 noundef %2, ptr noundef %3, ptr noundef %4) #0 {
  %6 = alloca ptr, align 8
  %7 = alloca i32, align 4
  %8 = alloca i32, align 4
  %9 = alloca ptr, align 8
  %10 = alloca ptr, align 8
  store ptr %0, ptr %6, align 8, !tbaa !3
  store i32 %1, ptr %7, align 4, !tbaa !8
  store i32 %2, ptr %8, align 4, !tbaa !8
  store ptr %3, ptr %9, align 8, !tbaa !10
  store ptr %4, ptr %10, align 8, !tbaa !10
  %11 = load ptr, ptr %6, align 8, !tbaa !3
  %12 = getelementptr inbounds nuw %struct.ccm128_context, ptr %11, i32 0, i32 0
  %13 = getelementptr inbounds [16 x i8], ptr %12, i64 0, i64 0
  call void @llvm.memset.p0.i64(ptr align 8 %13, i8 0, i64 16, i1 false)
  %14 = load i32, ptr %8, align 4, !tbaa !8
  %15 = sub i32 %14, 1
  %16 = trunc i32 %15 to i8
  %17 = zext i8 %16 to i32
  %18 = and i32 %17, 7
  %19 = load i32, ptr %7, align 4, !tbaa !8
  %20 = sub i32 %19, 2
  %21 = udiv i32 %20, 2
  %22 = and i32 %21, 7
  %23 = trunc i32 %22 to i8
  %24 = zext i8 %23 to i32
  %25 = shl i32 %24, 3
  %26 = or i32 %18, %25
  %27 = trunc i32 %26 to i8
  %28 = load ptr, ptr %6, align 8, !tbaa !3
  %29 = getelementptr inbounds nuw %struct.ccm128_context, ptr %28, i32 0, i32 0
  %30 = getelementptr inbounds [16 x i8], ptr %29, i64 0, i64 0
  store i8 %27, ptr %30, align 8, !tbaa !11
  %31 = load ptr, ptr %6, align 8, !tbaa !3
  %32 = getelementptr inbounds nuw %struct.ccm128_context, ptr %31, i32 0, i32 2
  store i64 0, ptr %32, align 8, !tbaa !12
  %33 = load ptr, ptr %10, align 8, !tbaa !10
  %34 = load ptr, ptr %6, align 8, !tbaa !3
  %35 = getelementptr inbounds nuw %struct.ccm128_context, ptr %34, i32 0, i32 3
  store ptr %33, ptr %35, align 8, !tbaa !15
  %36 = load ptr, ptr %9, align 8, !tbaa !10
  %37 = load ptr, ptr %6, align 8, !tbaa !3
  %38 = getelementptr inbounds nuw %struct.ccm128_context, ptr %37, i32 0, i32 4
  store ptr %36, ptr %38, align 8, !tbaa !16
  ret void
}