; Function Attrs: mustprogress nofree norecurse nosync nounwind willreturn memory(argmem: write) uwtable
define void @CRYPTO_ccm128_init(ptr noundef writeonly captures(none) initializes((0, 16), (32, 56)) %0, i32 noundef %1, i32 noundef %2, ptr noundef %3, ptr noundef %4) local_unnamed_addr #0 {
  tail call void @llvm.memset.p0.i64(ptr noundef nonnull align 8 dereferenceable(16) %0, i8 0, i64 16, i1 false)
  %6 = add i32 %2, 7
  %7 = and i32 %6, 7
  %8 = shl i32 %1, 2
  %9 = add i32 %8, 56
  %10 = and i32 %9, 56
  %11 = or disjoint i32 %7, %10
  %12 = trunc nuw nsw i32 %11 to i8
  store i8 %12, ptr %0, align 8, !tbaa !3
  %13 = getelementptr inbounds nuw i8, ptr %0, i64 32
  store i64 0, ptr %13, align 8, !tbaa !6
  %14 = getelementptr inbounds nuw i8, ptr %0, i64 40
  store ptr %4, ptr %14, align 8, !tbaa !10
  %15 = getelementptr inbounds nuw i8, ptr %0, i64 48
  store ptr %3, ptr %15, align 8, !tbaa !11
  ret void
}